; Function Attrs: mustprogress uwtable
define hidden noundef ptr @_Z12mk_fm_tacticR11ast_managerRK10params_ref(ptr noundef nonnull align 8 dereferenceable(976) %m, ptr noundef nonnull align 8 dereferenceable(8) %p) local_unnamed_addr #3 personality ptr @__gxx_personality_v0 {
entry:
  %s_p = alloca %class.params_ref, align 8
  call void @_ZN10params_refC1ERKS_(ptr noundef nonnull align 8 dereferenceable(8) %s_p, ptr noundef nonnull align 8 dereferenceable(8) %p)
  invoke void @_ZN10params_ref8set_boolEPKcb(ptr noundef nonnull align 8 dereferenceable(8) %s_p, ptr noundef nonnull @.str, i1 noundef zeroext true)
          to label %invoke.cont unwind label %lpad

invoke.cont:                                      ; preds = %entry
  invoke void @_ZN10params_ref8set_boolEPKcb(ptr noundef nonnull align 8 dereferenceable(8) %s_p, ptr noundef nonnull @.str.1, i1 noundef zeroext true)
          to label %invoke.cont1 unwind label %lpad

invoke.cont1:                                     ; preds = %invoke.cont
  invoke void @_ZN10params_ref8set_boolEPKcb(ptr noundef nonnull align 8 dereferenceable(8) %s_p, ptr noundef nonnull @.str.2, i1 noundef zeroext true)
          to label %invoke.cont2 unwind label %lpad

invoke.cont2:                                     ; preds = %invoke.cont1
  %call = invoke noundef ptr @_Z18mk_simplify_tacticR11ast_managerRK10params_ref(ptr noundef nonnull align 8 dereferenceable(976) %m, ptr noundef nonnull align 8 dereferenceable(8) %s_p)
          to label %invoke.cont3 unwind label %lpad

invoke.cont3:                                     ; preds = %invoke.cont2
  %call5 = invoke noundef ptr @_Z12using_paramsP6tacticRK10params_ref(ptr noundef %call, ptr noundef nonnull align 8 dereferenceable(8) %s_p)
          to label %invoke.cont4 unwind label %lpad

invoke.cont4:                                     ; preds = %invoke.cont3
  %call7 = invoke noalias noundef ptr @_ZN6memory8allocateEm(i64 noundef 32)
          to label %invoke.cont6 unwind label %lpad

invoke.cont6:                                     ; preds = %invoke.cont4
  %m_ref_count.i.i = getelementptr inbounds i8, ptr %call7, i64 8
  store i32 0, ptr %m_ref_count.i.i, align 8
  store ptr getelementptr inbounds ({ [25 x ptr] }, ptr @_ZTV9fm_tactic, i64 0, i32 0, i64 2), ptr %call7, align 8
  %m_params.i = getelementptr inbounds i8, ptr %call7, i64 24
  invoke void @_ZN10params_refC1ERKS_(ptr noundef nonnull align 8 dereferenceable(8) %m_params.i, ptr noundef nonnull align 8 dereferenceable(8) %p)
          to label %.noexc unwind label %lpad

.noexc:                                           ; preds = %invoke.cont6
  %call.i = invoke noalias noundef ptr @_ZN6memory8allocateEm(i64 noundef 848)
          to label %invoke.cont3.i unwind label %lpad2.i

invoke.cont3.i:                                   ; preds = %.noexc
  invoke void @_ZN9fm_tactic3impC2ER11ast_managerRK10params_ref(ptr noundef nonnull align 8 dereferenceable(848) %call.i, ptr noundef nonnull align 8 dereferenceable(976) %m, ptr noundef nonnull align 8 dereferenceable(8) %p)
          to label %invoke.cont8 unwind label %lpad2.i

lpad2.i:                                          ; preds = %invoke.cont3.i, %.noexc
  %0 = landingpad { ptr, i32 }
          cleanup
  call void @_ZN10params_refD1Ev(ptr noundef nonnull align 8 dereferenceable(8) %m_params.i) #17
  br label %lpad.body

invoke.cont8:                                     ; preds = %invoke.cont3.i
  %m_imp.i = getelementptr inbounds i8, ptr %call7, i64 16
  store ptr %call.i, ptr %m_imp.i, align 8
  %call10 = invoke noundef ptr @_Z5cleanP6tactic(ptr noundef nonnull %call7)
          to label %invoke.cont9 unwind label %lpad

invoke.cont9:                                     ; preds = %invoke.cont8
  %call12 = invoke noundef ptr @_Z8and_thenP6tacticS0_(ptr noundef %call5, ptr noundef %call10)
          to label %invoke.cont11 unwind label %lpad

invoke.cont11:                                    ; preds = %invoke.cont9
  call void @_ZN10params_refD1Ev(ptr noundef nonnull align 8 dereferenceable(8) %s_p) #17
  ret ptr %call12

lpad:                                             ; preds = %invoke.cont6, %invoke.cont9, %invoke.cont8, %invoke.cont4, %invoke.cont3, %invoke.cont2, %invoke.cont1, %invoke.cont, %entry
  %1 = landingpad { ptr, i32 }
          cleanup
  br label %lpad.body

lpad.body:                                        ; preds = %lpad2.i, %lpad
  %eh.lpad-body = phi { ptr, i32 } [ %1, %lpad ], [ %0, %lpad2.i ]
  call void @_ZN10params_refD1Ev(ptr noundef nonnull align 8 dereferenceable(8) %s_p) #17
  resume { ptr, i32 } %eh.lpad-body
}